target datalayout = "e-m:e-p270:32:32-p271:32:32-p272:64:64-i64:64-i128:128-f80:128-n8:16:32:64-S128"
target triple = "x86_64-pc-linux-gnu"

%struct.ImVec2 = type { float, float }
%struct.ImRect = type { %struct.ImVec2, %struct.ImVec2 }
%struct.ImGuiTextBuffer = type { %struct.ImVector.34 }
%struct.ImVector.34 = type { i32, i32, ptr }
%struct.ImGuiTabBar = type { ptr, %struct.ImVector.47, i32, i32, i32, i32, i32, i32, i32, %struct.ImRect, float, float, float, float, float, float, float, float, float, float, float, float, i32, i16, i8, i8, i8, i8, i16, i16, float, %struct.ImVec2, %struct.ImVec2, %struct.ImGuiTextBuffer }
%struct.ImVector.47 = type { i32, i32, ptr }
%struct.ImGuiTabItem = type <{ i32, i32, i32, i32, float, float, float, float, i32, i16, i16, i8, [3 x i8] }>

; Function Attrs: inlinehint mustprogress nounwind uwtable
define linkonce_odr noundef nonnull align 4 dereferenceable(41) ptr @_ZN8ImVectorI12ImGuiTabItemEixEi(ptr noundef nonnull align 8 dereferenceable(16) %0, i32 noundef %1) #2 comdat align 2 {
  %3 = alloca ptr, align 8
  %4 = alloca i32, align 4
  store ptr %0, ptr %3, align 8, !tbaa !840
  store i32 %1, ptr %4, align 4, !tbaa !8
  %5 = load ptr, ptr %3, align 8
  %6 = getelementptr inbounds nuw %struct.ImVector.47, ptr %5, i32 0, i32 2
  %7 = load ptr, ptr %6, align 8, !tbaa !844
  %8 = load i32, ptr %4, align 4, !tbaa !8
  %9 = sext i32 %8 to i64
  %10 = getelementptr inbounds %struct.ImGuiTabItem, ptr %7, i64 %9
  ret ptr %10
}

; Function Attrs: mustprogress uwtable
define noundef ptr @_ZN5ImGui20TabBarFindTabByOrderEP11ImGuiTabBari(ptr noundef %0, i32 noundef %1) #9 {
  %3 = alloca ptr, align 8
  %4 = alloca ptr, align 8
  %5 = alloca i32, align 4
  store ptr %0, ptr %4, align 8, !tbaa !833
  store i32 %1, ptr %5, align 4, !tbaa !8
  %6 = load i32, ptr %5, align 4, !tbaa !8
  %7 = icmp slt i32 %6, 0
  br i1 %7, label %15, label %8

8:                                                ; preds = %2
  %9 = load i32, ptr %5, align 4, !tbaa !8
  %10 = load ptr, ptr %4, align 8, !tbaa !833
  %11 = getelementptr inbounds nuw %struct.ImGuiTabBar, ptr %10, i32 0, i32 1
  %12 = getelementptr inbounds nuw %struct.ImVector.47, ptr %11, i32 0, i32 0
  %13 = load i32, ptr %12, align 8, !tbaa !863
  %14 = icmp sge i32 %9, %13
  br i1 %14, label %15, label %16

15:                                               ; preds = %8, %2
  store ptr null, ptr %3, align 8
  br label %21

16:                                               ; preds = %8
  %17 = load ptr, ptr %4, align 8, !tbaa !833
  %18 = getelementptr inbounds nuw %struct.ImGuiTabBar, ptr %17, i32 0, i32 1
  %19 = load i32, ptr %5, align 4, !tbaa !8
  %20 = call noundef nonnull align 4 dereferenceable(41) ptr @_ZN8ImVectorI12ImGuiTabItemEixEi(ptr noundef nonnull align 8 dereferenceable(16) %18, i32 noundef %19)
  store ptr %20, ptr %3, align 8
  br label %21

21:                                               ; preds = %16, %15
  %22 = load ptr, ptr %3, align 8
  ret ptr %22
}