; Function Attrs: mustprogress nofree norecurse nosync nounwind willreturn memory(argmem: read) uwtable
define noundef ptr @_ZN5ImGui20TabBarFindTabByOrderEP11ImGuiTabBari(ptr noundef readonly captures(none) %0, i32 noundef %1) local_unnamed_addr #12 {
  %3 = icmp slt i32 %1, 0
  br i1 %3, label %12, label %4

4:                                                ; preds = %2
  %5 = getelementptr inbounds nuw i8, ptr %0, i64 8
  %6 = load i32, ptr %5, align 8, !tbaa !760
  %.not = icmp slt i32 %1, %6
  br i1 %.not, label %7, label %12

7:                                                ; preds = %4
  %8 = getelementptr inbounds nuw i8, ptr %0, i64 16
  %9 = load ptr, ptr %8, align 8, !tbaa !773
  %10 = zext nneg i32 %1 to i64
  %11 = getelementptr inbounds nuw %struct.ImGuiTabItem, ptr %9, i64 %10
  br label %12

12:                                               ; preds = %2, %4, %7
  %.0 = phi ptr [ %11, %7 ], [ null, %4 ], [ null, %2 ]
  ret ptr %.0
}